target datalayout = "e-m:e-p270:32:32-p271:32:32-p272:64:64-i64:64-i128:128-f80:128-n8:16:32:64-S128"
target triple = "x86_64-pc-linux-gnu"

%struct._zend_libxml_globals = type { %struct._zval_struct, %struct.smart_str, ptr, %struct._zend_fcall_info_cache, i8 }
%struct._zval_struct = type { %union._zend_value, %union.anon, %union.anon.2 }
%union._zend_value = type { i64 }
%union.anon = type { i32 }
%union.anon.2 = type { i32 }
%struct.smart_str = type { ptr, i64 }
%struct._zend_fcall_info_cache = type { ptr, ptr, ptr, ptr, ptr }
%struct.php_file_globals = type { i32, i64, i8, i64, ptr, ptr, ptr, ptr, ptr, ptr, ptr, i32, %struct.hostent, ptr, i64 }
%struct.hostent = type { ptr, ptr, i32, i32, ptr }

@libxml_globals = internal global %struct._zend_libxml_globals zeroinitializer, align 8
@.str.3 = private unnamed_addr constant [15 x i8] c"Stream-Context\00", align 1
@file_globals = external global %struct.php_file_globals, align 8

; Function Attrs: nounwind uwtable
define ptr @php_libxml_get_stream_context() #0 {
  %1 = alloca ptr, align 8
  %2 = alloca ptr, align 8
  store ptr @libxml_globals, ptr %1, align 8
  %3 = load ptr, ptr %1, align 8
  %4 = getelementptr inbounds %struct._zval_struct, ptr %3, i32 0, i32 1
  %5 = load i8, ptr %4, align 8
  %6 = zext i8 %5 to i32
  %7 = icmp eq i32 %6, 0
  br i1 %7, label %8, label %9

8:                                                ; preds = %0
  br i1 false, label %10, label %19

9:                                                ; preds = %0
  br i1 true, label %10, label %19

10:                                               ; preds = %9, %8
  store ptr @libxml_globals, ptr %2, align 8
  %11 = load ptr, ptr %2, align 8
  %12 = getelementptr inbounds %struct._zval_struct, ptr %11, i32 0, i32 1
  %13 = load i8, ptr %12, align 8
  %14 = zext i8 %13 to i32
  %15 = icmp eq i32 %14, 0
  %16 = select i1 %15, ptr null, ptr @libxml_globals
  %17 = call i32 @php_le_stream_context()
  %18 = call ptr @zend_fetch_resource_ex(ptr noundef %16, ptr noundef @.str.3, i32 noundef %17)
  br label %28

19:                                               ; preds = %9, %8
  %20 = load ptr, ptr getelementptr inbounds (%struct.php_file_globals, ptr @file_globals, i32 0, i32 7), align 8
  %21 = icmp ne ptr %20, null
  br i1 %21, label %22, label %24

22:                                               ; preds = %19
  %23 = load ptr, ptr getelementptr inbounds (%struct.php_file_globals, ptr @file_globals, i32 0, i32 7), align 8
  br label %26

24:                                               ; preds = %19
  %25 = call ptr @php_stream_context_alloc()
  store ptr %25, ptr getelementptr inbounds (%struct.php_file_globals, ptr @file_globals, i32 0, i32 7), align 8
  br label %26

26:                                               ; preds = %24, %22
  %27 = phi ptr [ %23, %22 ], [ %25, %24 ]
  br label %28

28:                                               ; preds = %26, %10
  %29 = phi ptr [ %18, %10 ], [ %27, %26 ]
  ret ptr %29
}