; Function Attrs: nounwind uwtable
define ptr @php_libxml_get_stream_context() local_unnamed_addr #0 {
  %1 = load i8, ptr getelementptr inbounds (%struct._zend_libxml_globals, ptr @libxml_globals, i64 0, i32 0, i32 1), align 8
  %2 = icmp eq i8 %1, 0
  br i1 %2, label %6, label %3

3:                                                ; preds = %0
  %4 = tail call i32 @php_le_stream_context() #17
  %5 = tail call ptr @zend_fetch_resource_ex(ptr noundef nonnull @libxml_globals, ptr noundef nonnull @.str.3, i32 noundef %4) #17
  br label %10

6:                                                ; preds = %0
  %7 = load ptr, ptr getelementptr inbounds (%struct.php_file_globals, ptr @file_globals, i64 0, i32 7), align 8
  %.not = icmp eq ptr %7, null
  br i1 %.not, label %8, label %10

8:                                                ; preds = %6
  %9 = tail call ptr @php_stream_context_alloc() #17
  store ptr %9, ptr getelementptr inbounds (%struct.php_file_globals, ptr @file_globals, i64 0, i32 7), align 8
  br label %10

10:                                               ; preds = %6, %8, %3
  %11 = phi ptr [ %5, %3 ], [ %9, %8 ], [ %7, %6 ]
  ret ptr %11
}